; Function Attrs: mustprogress uwtable
define internal void @"_ZNSt17_Function_handlerIFvPKcEZN9V3Options13parseOptsListEP8FileLineRKNSt7__cxx1112basic_stringIcSt11char_traitsIcESaIcEEEiPPcE4$_75E9_M_invokeERKSt9_Any_dataOS1_"(ptr noundef nonnull readonly align 8 captures(none) dereferenceable(16) %0, ptr noundef nonnull readonly align 8 captures(none) dereferenceable(8) %1) #6 align 2 {
  %.val = load ptr, ptr %1, align 8, !tbaa !4
  %3 = load ptr, ptr %0, align 8, !tbaa !840
  %4 = tail call i64 @strtol(ptr noundef nonnull captures(none) %.val, ptr noundef null, i32 noundef 10) #40
  %5 = trunc i64 %4 to i32
  %6 = getelementptr inbounds nuw i8, ptr %3, i64 964
  store i32 %5, ptr %6, align 4, !tbaa !458
  %7 = icmp sgt i32 %5, 65
  br i1 %7, label %8, label %"_ZSt10__invoke_rIvRZN9V3Options13parseOptsListEP8FileLineRKNSt7__cxx1112basic_stringIcSt11char_traitsIcESaIcEEEiPPcE4$_75JPKcEENSt9enable_ifIX16is_invocable_r_vIT_T0_DpT1_EESI_E4typeEOSJ_DpOSK_.exit"

8:                                                ; preds = %2
  %9 = getelementptr inbounds nuw i8, ptr %0, i64 8
  %10 = load ptr, ptr %9, align 8, !tbaa !842
  %11 = tail call noundef nonnull align 8 dereferenceable(112) ptr @_ZN7V3Error11v3errorPrepB5cxx11E11V3ErrorCode(i8 2)
  %12 = tail call noundef nonnull align 8 dereferenceable(112) ptr @_ZN7V3Error10v3errorStrB5cxx11Ev()
  %13 = tail call noundef nonnull align 8 dereferenceable(8) ptr @_ZStlsISt11char_traitsIcEERSt13basic_ostreamIcT_ES5_PKc(ptr noundef nonnull align 8 dereferenceable(8) %12, ptr noundef nonnull @.str.627)
  %14 = tail call noundef nonnull align 8 dereferenceable(8) ptr @_ZStlsISt11char_traitsIcEERSt13basic_ostreamIcT_ES5_PKc(ptr noundef nonnull align 8 dereferenceable(8) %13, ptr noundef nonnull %.val)
  tail call void @_ZN8FileLine15v3errorEndFatalERNSt7__cxx1119basic_ostringstreamIcSt11char_traitsIcESaIcEEE(ptr noundef nonnull align 8 dereferenceable(40) %10, ptr noundef nonnull align 8 dereferenceable(112) %14) #42
  unreachable

"_ZSt10__invoke_rIvRZN9V3Options13parseOptsListEP8FileLineRKNSt7__cxx1112basic_stringIcSt11char_traitsIcESaIcEEEiPPcE4$_75JPKcEENSt9enable_ifIX16is_invocable_r_vIT_T0_DpT1_EESI_E4typeEOSJ_DpOSK_.exit": ; preds = %2
  ret void
}